; Function Attrs: mustprogress uwtable
define noundef zeroext i1 @_ZN9grpc_core19PartySyncUsingMutex14ScheduleWakeupEt(ptr noundef nonnull align 8 dereferenceable(21) %this, i16 noundef zeroext %mask) local_unnamed_addr #5 align 2 personality ptr @__gxx_personality_v0 {
entry:
  %mu_ = getelementptr inbounds i8, ptr %this, i64 8
  tail call void @_ZN4absl12lts_202308025Mutex4LockEv(ptr noundef nonnull align 8 dereferenceable(8) %mu_)
  %wakeups_ = getelementptr inbounds i8, ptr %this, i64 18
  %0 = load i16, ptr %wakeups_, align 2
  %or1 = or i16 %0, %mask
  store i16 %or1, ptr %wakeups_, align 2
  %locked_ = getelementptr inbounds i8, ptr %this, i64 20
  %1 = load i8, ptr %locked_, align 4
  store i8 1, ptr %locked_, align 4
  invoke void @_ZN4absl12lts_202308025Mutex6UnlockEv(ptr noundef nonnull align 8 dereferenceable(8) %mu_)
          to label %_ZN4absl12lts_202308029MutexLockD2Ev.exit unwind label %terminate.lpad.i

terminate.lpad.i:                                 ; preds = %entry
  %2 = landingpad { ptr, i32 }
          catch ptr null
  %3 = extractvalue { ptr, i32 } %2, 0
  tail call void @__clang_call_terminate(ptr %3) #23
  unreachable

_ZN4absl12lts_202308029MutexLockD2Ev.exit:        ; preds = %entry
  %4 = and i8 %1, 1
  %tobool.i.i.not = icmp eq i8 %4, 0
  ret i1 %tobool.i.i.not
}